; Function Attrs: mustprogress nofree norecurse nosync nounwind willreturn memory(read, inaccessiblemem: none) uwtable
define hidden noundef ptr @_ZN8subterms8iteratordeEv(ptr noundef nonnull readonly align 8 captures(none) dereferenceable(56) %0) local_unnamed_addr #10 align 2 {
  %2 = getelementptr inbounds nuw i8, ptr %0, i64 16
  %3 = load ptr, ptr %2, align 8, !tbaa !97
  %4 = load ptr, ptr %3, align 8, !tbaa !58
  %5 = icmp eq ptr %4, null
  br i1 %5, label %_ZN6vectorIP4exprLb0EjE4backEv.exit, label %6

6:                                                ; preds = %1
  %7 = getelementptr inbounds i8, ptr %4, i64 -4
  %8 = load i32, ptr %7, align 4, !tbaa !56
  %9 = add i32 %8, -1
  %10 = zext i32 %9 to i64
  br label %_ZN6vectorIP4exprLb0EjE4backEv.exit

_ZN6vectorIP4exprLb0EjE4backEv.exit:              ; preds = %1, %6
  %.0.i.i = phi i64 [ %10, %6 ], [ 4294967295, %1 ]
  %11 = getelementptr inbounds nuw ptr, ptr %4, i64 %.0.i.i
  %12 = load ptr, ptr %11, align 8, !tbaa !35
  ret ptr %12
}